target datalayout = "e-m:e-p270:32:32-p271:32:32-p272:64:64-i64:64-i128:128-f80:128-n8:16:32:64-S128"
target triple = "x86_64-pc-linux-gnu"

%"class.OpenImageIO::v3_1_0::DeepData" = type <{ ptr, i64, i32, [4 x i8] }>
%"class.std::vector" = type { %"struct.std::_Vector_base" }
%"struct.std::_Vector_base" = type { %"struct.std::_Vector_base<OpenImageIO::v3_1_0::TypeDesc, std::allocator<OpenImageIO::v3_1_0::TypeDesc>>::_Vector_impl" }
%"struct.std::_Vector_base<OpenImageIO::v3_1_0::TypeDesc, std::allocator<OpenImageIO::v3_1_0::TypeDesc>>::_Vector_impl" = type { %"struct.std::_Vector_base<OpenImageIO::v3_1_0::TypeDesc, std::allocator<OpenImageIO::v3_1_0::TypeDesc>>::_Vector_impl_data" }
%"struct.std::_Vector_base<OpenImageIO::v3_1_0::TypeDesc, std::allocator<OpenImageIO::v3_1_0::TypeDesc>>::_Vector_impl_data" = type { ptr, ptr, ptr }
%"class.std::vector.0" = type { %"struct.std::_Vector_base.1" }
%"struct.std::_Vector_base.1" = type { %"struct.std::_Vector_base<std::__cxx11::basic_string<char>, std::allocator<std::__cxx11::basic_string<char>>>::_Vector_impl" }
%"struct.std::_Vector_base<std::__cxx11::basic_string<char>, std::allocator<std::__cxx11::basic_string<char>>>::_Vector_impl" = type { %"struct.std::_Vector_base<std::__cxx11::basic_string<char>, std::allocator<std::__cxx11::basic_string<char>>>::_Vector_impl_data" }
%"struct.std::_Vector_base<std::__cxx11::basic_string<char>, std::allocator<std::__cxx11::basic_string<char>>>::_Vector_impl_data" = type { ptr, ptr, ptr }
%"class.OpenImageIO::v3_1_0::DeepData::Impl" = type <{ %"class.std::vector", %"class.std::vector.10", %"class.std::vector.10", %"class.std::vector.15", %"class.std::vector.15", %"class.std::vector.15", %"class.std::vector.20", %"class.std::vector.0", %"class.std::vector.25", i64, i32, i32, i32, i32, i32, i32, i8, %"class.OpenImageIO::v3_1_0::spin_mutex", [6 x i8] }>
%"class.std::vector.10" = type { %"struct.std::_Vector_base.11" }
%"struct.std::_Vector_base.11" = type { %"struct.std::_Vector_base<unsigned long, std::allocator<unsigned long>>::_Vector_impl" }
%"struct.std::_Vector_base<unsigned long, std::allocator<unsigned long>>::_Vector_impl" = type { %"struct.std::_Vector_base<unsigned long, std::allocator<unsigned long>>::_Vector_impl_data" }
%"struct.std::_Vector_base<unsigned long, std::allocator<unsigned long>>::_Vector_impl_data" = type { ptr, ptr, ptr }
%"class.std::vector.15" = type { %"struct.std::_Vector_base.16" }
%"struct.std::_Vector_base.16" = type { %"struct.std::_Vector_base<unsigned int, std::allocator<unsigned int>>::_Vector_impl" }
%"struct.std::_Vector_base<unsigned int, std::allocator<unsigned int>>::_Vector_impl" = type { %"struct.std::_Vector_base<unsigned int, std::allocator<unsigned int>>::_Vector_impl_data" }
%"struct.std::_Vector_base<unsigned int, std::allocator<unsigned int>>::_Vector_impl_data" = type { ptr, ptr, ptr }
%"class.std::vector.20" = type { %"struct.std::_Vector_base.21" }
%"struct.std::_Vector_base.21" = type { %"struct.std::_Vector_base<char, std::allocator<char>>::_Vector_impl" }
%"struct.std::_Vector_base<char, std::allocator<char>>::_Vector_impl" = type { %"struct.std::_Vector_base<char, std::allocator<char>>::_Vector_impl_data" }
%"struct.std::_Vector_base<char, std::allocator<char>>::_Vector_impl_data" = type { ptr, ptr, ptr }
%"class.std::vector.25" = type { %"struct.std::_Vector_base.26" }
%"struct.std::_Vector_base.26" = type { %"struct.std::_Vector_base<int, std::allocator<int>>::_Vector_impl" }
%"struct.std::_Vector_base<int, std::allocator<int>>::_Vector_impl" = type { %"struct.std::_Vector_base<int, std::allocator<int>>::_Vector_impl_data" }
%"struct.std::_Vector_base<int, std::allocator<int>>::_Vector_impl_data" = type { ptr, ptr, ptr }
%"class.OpenImageIO::v3_1_0::spin_mutex" = type { %"struct.std::atomic_flag" }
%"struct.std::atomic_flag" = type { %"struct.std::__atomic_flag_base" }
%"struct.std::__atomic_flag_base" = type { i8 }
%"class.OpenImageIO::v3_1_0::span.31" = type { ptr, i64 }

; Function Attrs: inlinehint mustprogress nounwind uwtable
define linkonce_odr void @_ZSt19__iterator_categoryIPKjENSt15iterator_traitsIT_E17iterator_categoryERKS3_(ptr noundef nonnull align 8 dereferenceable(8) %0) #7 comdat {
  %2 = alloca ptr, align 8
  store ptr %0, ptr %2, align 8, !tbaa !539
  ret void
}

; Function Attrs: mustprogress uwtable
define linkonce_odr void @_ZNSt6vectorIjSaIjEE18_M_assign_dispatchIPKjEEvT_S5_St12__false_type(ptr noundef nonnull align 8 dereferenceable(24) %0, ptr noundef %1, ptr noundef %2) #6 comdat align 2 {
  %4 = alloca ptr, align 8
  %5 = alloca ptr, align 8
  %6 = alloca ptr, align 8
  store ptr %0, ptr %4, align 8, !tbaa !130
  store ptr %1, ptr %5, align 8, !tbaa !128
  store ptr %2, ptr %6, align 8, !tbaa !128
  %7 = load ptr, ptr %4, align 8
  %8 = load ptr, ptr %5, align 8, !tbaa !128
  %9 = load ptr, ptr %6, align 8, !tbaa !128
  call void @_ZSt19__iterator_categoryIPKjENSt15iterator_traitsIT_E17iterator_categoryERKS3_(ptr noundef nonnull align 8 dereferenceable(8) %5)
  call void @_ZNSt6vectorIjSaIjEE13_M_assign_auxIPKjEEvT_S5_St20forward_iterator_tag(ptr noundef nonnull align 8 dereferenceable(24) %7, ptr noundef %8, ptr noundef %9)
  ret void
}

; Function Attrs: mustprogress nounwind uwtable
define linkonce_odr hidden noundef i64 @_ZNK11OpenImageIO6v3_1_04spanIKjLm18446744073709551615EE4sizeEv(ptr noundef nonnull align 8 dereferenceable(16) %0) #5 comdat align 2 {
  %2 = alloca ptr, align 8
  store ptr %0, ptr %2, align 8, !tbaa !157
  %3 = load ptr, ptr %2, align 8
  %4 = getelementptr inbounds nuw %"class.OpenImageIO::v3_1_0::span.31", ptr %3, i32 0, i32 1
  %5 = load i64, ptr %4, align 8, !tbaa !409
  ret i64 %5
}

; Function Attrs: mustprogress uwtable
define linkonce_odr void @_ZNSt6vectorIjSaIjEE6assignIPKjvEEvT_S5_(ptr noundef nonnull align 8 dereferenceable(24) %0, ptr noundef %1, ptr noundef %2) #6 comdat align 2 {
  %4 = alloca ptr, align 8
  %5 = alloca ptr, align 8
  %6 = alloca ptr, align 8
  store ptr %0, ptr %4, align 8, !tbaa !130
  store ptr %1, ptr %5, align 8, !tbaa !128
  store ptr %2, ptr %6, align 8, !tbaa !128
  %7 = load ptr, ptr %4, align 8
  %8 = load ptr, ptr %5, align 8, !tbaa !128
  %9 = load ptr, ptr %6, align 8, !tbaa !128
  call void @_ZNSt6vectorIjSaIjEE18_M_assign_dispatchIPKjEEvT_S5_St12__false_type(ptr noundef nonnull align 8 dereferenceable(24) %7, ptr noundef %8, ptr noundef %9)
  ret void
}

; Function Attrs: mustprogress nounwind uwtable
define linkonce_odr hidden noundef ptr @_ZNK11OpenImageIO6v3_1_04spanIKjLm18446744073709551615EE4dataEv(ptr noundef nonnull align 8 dereferenceable(16) %0) #5 comdat align 2 {
  %2 = alloca ptr, align 8
  store ptr %0, ptr %2, align 8, !tbaa !157
  %3 = load ptr, ptr %2, align 8
  %4 = getelementptr inbounds nuw %"class.OpenImageIO::v3_1_0::span.31", ptr %3, i32 0, i32 0
  %5 = load ptr, ptr %4, align 8, !tbaa !159
  ret ptr %5
}

; Function Attrs: mustprogress nounwind uwtable
define linkonce_odr hidden noundef nonnull align 4 dereferenceable(4) ptr @_ZNK11OpenImageIO6v3_1_04spanIKjLm18446744073709551615EEixEm(ptr noundef nonnull align 8 dereferenceable(16) %0, i64 noundef %1) #5 comdat align 2 {
  %3 = alloca ptr, align 8
  %4 = alloca i64, align 8
  store ptr %0, ptr %3, align 8, !tbaa !157
  store i64 %1, ptr %4, align 8, !tbaa !64
  %5 = load ptr, ptr %3, align 8
  %6 = getelementptr inbounds nuw %"class.OpenImageIO::v3_1_0::span.31", ptr %5, i32 0, i32 0
  %7 = load ptr, ptr %6, align 8, !tbaa !159
  %8 = load i64, ptr %4, align 8, !tbaa !64
  %9 = getelementptr inbounds nuw i32, ptr %7, i64 %8
  ret ptr %9
}

; Function Attrs: mustprogress nounwind uwtable
define linkonce_odr hidden noundef i64 @_ZSt5ssizeIKjLm18446744073709551615EElRKN11OpenImageIO6v3_1_04spanIT_XT0_EEE(ptr noundef nonnull align 8 dereferenceable(16) %0) #5 comdat {
  %2 = alloca ptr, align 8
  store ptr %0, ptr %2, align 8, !tbaa !157
  %3 = load ptr, ptr %2, align 8, !tbaa !157
  %4 = call noundef i64 @_ZNK11OpenImageIO6v3_1_04spanIKjLm18446744073709551615EE4sizeEv(ptr noundef nonnull align 8 dereferenceable(16) %3) #3
  ret i64 %4
}

; Function Attrs: mustprogress uwtable
define void @_ZN11OpenImageIO6v3_1_08DeepData15set_all_samplesENS0_4spanIKjLm18446744073709551615EEE(ptr noundef nonnull align 8 dereferenceable(20) %0, ptr %1, i64 %2) #6 align 2 {
  %4 = alloca %"class.OpenImageIO::v3_1_0::span.31", align 8
  %5 = alloca ptr, align 8
  %6 = alloca i64, align 8
  %7 = getelementptr inbounds nuw { ptr, i64 }, ptr %4, i32 0, i32 0
  store ptr %1, ptr %7, align 8
  %8 = getelementptr inbounds nuw { ptr, i64 }, ptr %4, i32 0, i32 1
  store i64 %2, ptr %8, align 8
  store ptr %0, ptr %5, align 8, !tbaa !3
  %9 = load ptr, ptr %5, align 8
  %10 = call noundef i64 @_ZSt5ssizeIKjLm18446744073709551615EElRKN11OpenImageIO6v3_1_04spanIT_XT0_EEE(ptr noundef nonnull align 8 dereferenceable(16) %4)
  %11 = getelementptr inbounds nuw %"class.OpenImageIO::v3_1_0::DeepData", ptr %9, i32 0, i32 1
  %12 = load i64, ptr %11, align 8, !tbaa !13
  %13 = icmp ne i64 %10, %12
  br i1 %13, label %14, label %15

14:                                               ; preds = %3
  br label %54

15:                                               ; preds = %3
  %16 = getelementptr inbounds nuw %"class.OpenImageIO::v3_1_0::DeepData", ptr %9, i32 0, i32 0
  %17 = load ptr, ptr %16, align 8, !tbaa !8
  %18 = getelementptr inbounds nuw %"class.OpenImageIO::v3_1_0::DeepData::Impl", ptr %17, i32 0, i32 16
  %19 = load i8, ptr %18, align 8, !tbaa !38, !range !93, !noundef !94
  %20 = trunc i8 %19 to i1
  br i1 %20, label %21, label %37

21:                                               ; preds = %15
  call void @llvm.lifetime.start.p0(i64 8, ptr %6) #3
  store i64 0, ptr %6, align 8, !tbaa !64
  br label %22

22:                                               ; preds = %33, %21
  %23 = load i64, ptr %6, align 8, !tbaa !64
  %24 = getelementptr inbounds nuw %"class.OpenImageIO::v3_1_0::DeepData", ptr %9, i32 0, i32 1
  %25 = load i64, ptr %24, align 8, !tbaa !13
  %26 = icmp slt i64 %23, %25
  br i1 %26, label %28, label %27

27:                                               ; preds = %22
  call void @llvm.lifetime.end.p0(i64 8, ptr %6) #3
  br label %36

28:                                               ; preds = %22
  %29 = load i64, ptr %6, align 8, !tbaa !64
  %30 = load i64, ptr %6, align 8, !tbaa !64
  %31 = call noundef nonnull align 4 dereferenceable(4) ptr @_ZNK11OpenImageIO6v3_1_04spanIKjLm18446744073709551615EEixEm(ptr noundef nonnull align 8 dereferenceable(16) %4, i64 noundef %30)
  %32 = load i32, ptr %31, align 4, !tbaa !71
  call void @_ZN11OpenImageIO6v3_1_08DeepData11set_samplesEli(ptr noundef nonnull align 8 dereferenceable(20) %9, i64 noundef %29, i32 noundef %32)
  br label %33

33:                                               ; preds = %28
  %34 = load i64, ptr %6, align 8, !tbaa !64
  %35 = add nsw i64 %34, 1
  store i64 %35, ptr %6, align 8, !tbaa !64
  br label %22, !llvm.loop !95

36:                                               ; preds = %27
  br label %54

37:                                               ; preds = %15
  %38 = getelementptr inbounds nuw %"class.OpenImageIO::v3_1_0::DeepData", ptr %9, i32 0, i32 0
  %39 = load ptr, ptr %38, align 8, !tbaa !8
  %40 = getelementptr inbounds nuw %"class.OpenImageIO::v3_1_0::DeepData::Impl", ptr %39, i32 0, i32 3
  %41 = call noundef ptr @_ZNK11OpenImageIO6v3_1_04spanIKjLm18446744073709551615EE4dataEv(ptr noundef nonnull align 8 dereferenceable(16) %4) #3
  %42 = call noundef ptr @_ZNK11OpenImageIO6v3_1_04spanIKjLm18446744073709551615EE4dataEv(ptr noundef nonnull align 8 dereferenceable(16) %4) #3
  %43 = getelementptr inbounds nuw %"class.OpenImageIO::v3_1_0::DeepData", ptr %9, i32 0, i32 1
  %44 = load i64, ptr %43, align 8, !tbaa !13
  %45 = getelementptr inbounds i32, ptr %42, i64 %44
  call void @_ZNSt6vectorIjSaIjEE6assignIPKjvEEvT_S5_(ptr noundef nonnull align 8 dereferenceable(24) %40, ptr noundef %41, ptr noundef %45)
  %46 = getelementptr inbounds nuw %"class.OpenImageIO::v3_1_0::DeepData", ptr %9, i32 0, i32 0
  %47 = load ptr, ptr %46, align 8, !tbaa !8
  %48 = getelementptr inbounds nuw %"class.OpenImageIO::v3_1_0::DeepData::Impl", ptr %47, i32 0, i32 4
  %49 = call noundef ptr @_ZNK11OpenImageIO6v3_1_04spanIKjLm18446744073709551615EE4dataEv(ptr noundef nonnull align 8 dereferenceable(16) %4) #3
  %50 = call noundef ptr @_ZNK11OpenImageIO6v3_1_04spanIKjLm18446744073709551615EE4dataEv(ptr noundef nonnull align 8 dereferenceable(16) %4) #3
  %51 = getelementptr inbounds nuw %"class.OpenImageIO::v3_1_0::DeepData", ptr %9, i32 0, i32 1
  %52 = load i64, ptr %51, align 8, !tbaa !13
  %53 = getelementptr inbounds i32, ptr %50, i64 %52
  call void @_ZNSt6vectorIjSaIjEE6assignIPKjvEEvT_S5_(ptr noundef nonnull align 8 dereferenceable(24) %48, ptr noundef %49, ptr noundef %53)
  br label %54

54:                                               ; preds = %14, %37, %36
  ret void
}