; Function Attrs: mustprogress uwtable
define void @_ZN11OpenImageIO6v3_1_08DeepData15set_all_samplesENS0_4spanIKjLm18446744073709551615EEE(ptr noundef nonnull readonly align 8 captures(none) dereferenceable(20) %0, ptr %1, i64 %2) local_unnamed_addr #5 align 2 {
  %4 = getelementptr inbounds nuw i8, ptr %0, i64 8
  %5 = load i64, ptr %4, align 8, !tbaa !62
  %.not = icmp eq i64 %2, %5
  br i1 %.not, label %6, label %.loopexit

6:                                                ; preds = %3
  %7 = load ptr, ptr %0, align 8, !tbaa !35
  %8 = getelementptr inbounds nuw i8, ptr %7, i64 248
  %9 = load i8, ptr %8, align 8, !tbaa !64, !range !83, !noundef !84
  %10 = trunc nuw i8 %9 to i1
  br i1 %10, label %.preheader, label %17

.preheader:                                       ; preds = %6
  %11 = icmp sgt i64 %2, 0
  br i1 %11, label %.lr.ph, label %.loopexit

.lr.ph:                                           ; preds = %.preheader, %.lr.ph
  %.08 = phi i64 [ %14, %.lr.ph ], [ 0, %.preheader ]
  %12 = getelementptr inbounds nuw i32, ptr %1, i64 %.08
  %13 = load i32, ptr %12, align 4, !tbaa !85
  tail call void @_ZN11OpenImageIO6v3_1_08DeepData11set_samplesEli(ptr noundef nonnull align 8 dereferenceable(20) %0, i64 noundef %.08, i32 noundef %13)
  %14 = add nuw nsw i64 %.08, 1
  %15 = load i64, ptr %4, align 8, !tbaa !62
  %16 = icmp slt i64 %14, %15
  br i1 %16, label %.lr.ph, label %.loopexit, !llvm.loop !86

17:                                               ; preds = %6
  %18 = getelementptr inbounds nuw i8, ptr %7, i64 72
  %19 = getelementptr inbounds i32, ptr %1, i64 %2
  tail call void @_ZNSt6vectorIjSaIjEE13_M_assign_auxIPKjEEvT_S5_St20forward_iterator_tag(ptr noundef nonnull align 8 dereferenceable(24) %18, ptr noundef %1, ptr noundef %19)
  %20 = load ptr, ptr %0, align 8, !tbaa !35
  %21 = getelementptr inbounds nuw i8, ptr %20, i64 96
  %22 = load i64, ptr %4, align 8, !tbaa !62
  %23 = getelementptr inbounds i32, ptr %1, i64 %22
  tail call void @_ZNSt6vectorIjSaIjEE13_M_assign_auxIPKjEEvT_S5_St20forward_iterator_tag(ptr noundef nonnull align 8 dereferenceable(24) %21, ptr noundef %1, ptr noundef %23)
  br label %.loopexit

.loopexit:                                        ; preds = %.lr.ph, %.preheader, %3, %17
  ret void
}